; Function Attrs: nofree norecurse nosync nounwind memory(read, inaccessiblemem: none) uwtable
define i32 @Cnf_CutSuperAreaFlow(ptr noundef readonly captures(none) %0, ptr noundef readonly captures(none) %1) local_unnamed_addr #1 {
  %3 = getelementptr i8, ptr %0, i64 4
  %.val17 = load i32, ptr %3, align 4
  %4 = mul i32 %.val17, 100
  %5 = add i32 %4, 100
  %6 = icmp sgt i32 %.val17, 0
  br i1 %6, label %.lr.ph, label %.critedge

.lr.ph:                                           ; preds = %2
  %7 = getelementptr i8, ptr %0, i64 8
  %.val = load ptr, ptr %7, align 8
  %wide.trip.count = zext nneg i32 %.val17 to i64
  br label %8

8:                                                ; preds = %.lr.ph, %27
  %indvars.iv = phi i64 [ 0, %.lr.ph ], [ %indvars.iv.next, %27 ]
  %.020 = phi i32 [ %5, %.lr.ph ], [ %.1, %27 ]
  %9 = getelementptr inbounds nuw ptr, ptr %.val, i64 %indvars.iv
  %10 = load ptr, ptr %9, align 8
  %11 = ptrtoint ptr %10 to i64
  %12 = and i64 %11, -2
  %13 = inttoptr i64 %12 to ptr
  %14 = getelementptr i8, ptr %13, i64 24
  %.val16 = load i64, ptr %14, align 8
  %15 = trunc i64 %.val16 to i32
  %16 = and i32 %15, 7
  %17 = add nsw i32 %16, -7
  %narrow.i = icmp ult i32 %17, -2
  br i1 %narrow.i, label %27, label %18

18:                                               ; preds = %8
  %19 = getelementptr inbounds nuw i8, ptr %13, i64 36
  %20 = load i32, ptr %19, align 4
  %21 = sext i32 %20 to i64
  %22 = getelementptr inbounds i32, ptr %1, i64 %21
  %23 = load i32, ptr %22, align 4
  %24 = tail call i32 @llvm.umax.i32(i32 %15, i32 64)
  %spec.select = lshr i32 %24, 6
  %25 = sdiv i32 %23, %spec.select
  %26 = add nsw i32 %25, %.020
  br label %27

27:                                               ; preds = %8, %18
  %.1 = phi i32 [ %26, %18 ], [ %.020, %8 ]
  %indvars.iv.next = add nuw nsw i64 %indvars.iv, 1
  %exitcond.not = icmp eq i64 %indvars.iv.next, %wide.trip.count
  br i1 %exitcond.not, label %.critedge, label %8, !llvm.loop !6

.critedge:                                        ; preds = %27, %2
  %.0.lcssa = phi i32 [ %5, %2 ], [ %.1, %27 ]
  ret i32 %.0.lcssa
}